target datalayout = "e-m:e-p270:32:32-p271:32:32-p272:64:64-i64:64-i128:128-f80:128-n8:16:32:64-S128"
target triple = "x86_64-pc-linux-gnu"

%struct.AMRFixed = type { i32, [10 x i32], [10 x float], i32, i32, float }

@.str = private unnamed_addr constant [30 x i8] c"Assertion %s failed at %s:%d\0A\00", align 1
@.str.1 = private unnamed_addr constant [9 x i8] c"x < size\00", align 1
@.str.2 = private unnamed_addr constant [27 x i8] c"libavcodec/acelp_vectors.c\00", align 1

; Function Attrs: nounwind uwtable
define void @ff_set_fixed_vector(ptr noundef %0, ptr noundef %1, float noundef %2, i32 noundef %3) #0 {
  %5 = alloca ptr, align 8
  %6 = alloca ptr, align 8
  %7 = alloca float, align 4
  %8 = alloca i32, align 4
  %9 = alloca i32, align 4
  %10 = alloca i32, align 4
  %11 = alloca i32, align 4
  %12 = alloca float, align 4
  store ptr %0, ptr %5, align 8, !tbaa !27
  store ptr %1, ptr %6, align 8, !tbaa !18
  store float %2, ptr %7, align 4, !tbaa !24
  store i32 %3, ptr %8, align 4, !tbaa !11
  call void @llvm.lifetime.start.p0(i64 4, ptr %9) #6
  store i32 0, ptr %9, align 4, !tbaa !11
  br label %13

13:                                               ; preds = %85, %4
  %14 = load i32, ptr %9, align 4, !tbaa !11
  %15 = load ptr, ptr %6, align 8, !tbaa !18
  %16 = getelementptr inbounds nuw %struct.AMRFixed, ptr %15, i32 0, i32 0
  %17 = load i32, ptr %16, align 4, !tbaa !23
  %18 = icmp slt i32 %14, %17
  br i1 %18, label %19, label %88

19:                                               ; preds = %13
  call void @llvm.lifetime.start.p0(i64 4, ptr %10) #6
  %20 = load ptr, ptr %6, align 8, !tbaa !18
  %21 = getelementptr inbounds nuw %struct.AMRFixed, ptr %20, i32 0, i32 1
  %22 = load i32, ptr %9, align 4, !tbaa !11
  %23 = sext i32 %22 to i64
  %24 = getelementptr inbounds [10 x i32], ptr %21, i64 0, i64 %23
  %25 = load i32, ptr %24, align 4, !tbaa !11
  store i32 %25, ptr %10, align 4, !tbaa !11
  call void @llvm.lifetime.start.p0(i64 4, ptr %11) #6
  %26 = load ptr, ptr %6, align 8, !tbaa !18
  %27 = getelementptr inbounds nuw %struct.AMRFixed, ptr %26, i32 0, i32 3
  %28 = load i32, ptr %27, align 4, !tbaa !20
  %29 = load i32, ptr %9, align 4, !tbaa !11
  %30 = ashr i32 %28, %29
  %31 = and i32 %30, 1
  %32 = icmp ne i32 %31, 0
  %33 = xor i1 %32, true
  %34 = zext i1 %33 to i32
  store i32 %34, ptr %11, align 4, !tbaa !11
  call void @llvm.lifetime.start.p0(i64 4, ptr %12) #6
  %35 = load ptr, ptr %6, align 8, !tbaa !18
  %36 = getelementptr inbounds nuw %struct.AMRFixed, ptr %35, i32 0, i32 2
  %37 = load i32, ptr %9, align 4, !tbaa !11
  %38 = sext i32 %37 to i64
  %39 = getelementptr inbounds [10 x float], ptr %36, i64 0, i64 %38
  %40 = load float, ptr %39, align 4, !tbaa !24
  %41 = load float, ptr %7, align 4, !tbaa !24
  %42 = fmul nsz float %40, %41
  store float %42, ptr %12, align 4, !tbaa !24
  %43 = load ptr, ptr %6, align 8, !tbaa !18
  %44 = getelementptr inbounds nuw %struct.AMRFixed, ptr %43, i32 0, i32 4
  %45 = load i32, ptr %44, align 4, !tbaa !32
  %46 = icmp sgt i32 %45, 0
  br i1 %46, label %47, label %84

47:                                               ; preds = %19
  br label %48

48:                                               ; preds = %47
  %49 = load i32, ptr %10, align 4, !tbaa !11
  %50 = load i32, ptr %8, align 4, !tbaa !11
  %51 = icmp slt i32 %49, %50
  br i1 %51, label %53, label %52

52:                                               ; preds = %48
  call void (ptr, i32, ptr, ...) @av_log(ptr noundef null, i32 noundef 0, ptr noundef @.str, ptr noundef @.str.1, ptr noundef @.str.2, i32 noundef 233)
  call void @abort() #8
  unreachable

53:                                               ; preds = %48
  br label %54

54:                                               ; preds = %53
  br label %55

55:                                               ; preds = %54
  br label %56

56:                                               ; preds = %81, %55
  %57 = load float, ptr %12, align 4, !tbaa !24
  %58 = load ptr, ptr %5, align 8, !tbaa !27
  %59 = load i32, ptr %10, align 4, !tbaa !11
  %60 = sext i32 %59 to i64
  %61 = getelementptr inbounds float, ptr %58, i64 %60
  %62 = load float, ptr %61, align 4, !tbaa !24
  %63 = fadd nsz float %62, %57
  store float %63, ptr %61, align 4, !tbaa !24
  %64 = load ptr, ptr %6, align 8, !tbaa !18
  %65 = getelementptr inbounds nuw %struct.AMRFixed, ptr %64, i32 0, i32 5
  %66 = load float, ptr %65, align 4, !tbaa !33
  %67 = load float, ptr %12, align 4, !tbaa !24
  %68 = fmul nsz float %67, %66
  store float %68, ptr %12, align 4, !tbaa !24
  %69 = load ptr, ptr %6, align 8, !tbaa !18
  %70 = getelementptr inbounds nuw %struct.AMRFixed, ptr %69, i32 0, i32 4
  %71 = load i32, ptr %70, align 4, !tbaa !32
  %72 = load i32, ptr %10, align 4, !tbaa !11
  %73 = add nsw i32 %72, %71
  store i32 %73, ptr %10, align 4, !tbaa !11
  br label %74

74:                                               ; preds = %56
  %75 = load i32, ptr %10, align 4, !tbaa !11
  %76 = load i32, ptr %8, align 4, !tbaa !11
  %77 = icmp slt i32 %75, %76
  br i1 %77, label %78, label %81

78:                                               ; preds = %74
  %79 = load i32, ptr %11, align 4, !tbaa !11
  %80 = icmp ne i32 %79, 0
  br label %81

81:                                               ; preds = %78, %74
  %82 = phi i1 [ false, %74 ], [ %80, %78 ]
  br i1 %82, label %56, label %83, !llvm.loop !34

83:                                               ; preds = %81
  br label %84

84:                                               ; preds = %83, %19
  call void @llvm.lifetime.end.p0(i64 4, ptr %12) #6
  call void @llvm.lifetime.end.p0(i64 4, ptr %11) #6
  call void @llvm.lifetime.end.p0(i64 4, ptr %10) #6
  br label %85

85:                                               ; preds = %84
  %86 = load i32, ptr %9, align 4, !tbaa !11
  %87 = add nsw i32 %86, 1
  store i32 %87, ptr %9, align 4, !tbaa !11
  br label %13, !llvm.loop !35

88:                                               ; preds = %13
  call void @llvm.lifetime.end.p0(i64 4, ptr %9) #6
  ret void
}