; Function Attrs: nounwind uwtable
define void @ff_set_fixed_vector(ptr noundef captures(none) %0, ptr noundef readonly captures(none) %1, float noundef %2, i32 noundef %3) local_unnamed_addr #2 {
  %5 = load i32, ptr %1, align 4, !tbaa !15
  %6 = icmp sgt i32 %5, 0
  br i1 %6, label %.lr.ph, label %._crit_edge

.lr.ph:                                           ; preds = %4
  %7 = getelementptr inbounds nuw i8, ptr %1, i64 84
  %8 = load i32, ptr %7, align 4, !tbaa !11
  %9 = getelementptr inbounds nuw i8, ptr %1, i64 88
  %10 = load i32, ptr %9, align 4, !tbaa !23
  %11 = icmp sgt i32 %10, 0
  %12 = getelementptr inbounds nuw i8, ptr %1, i64 44
  %13 = getelementptr inbounds nuw i8, ptr %1, i64 4
  %14 = getelementptr inbounds nuw i8, ptr %1, i64 92
  br i1 %11, label %.lr.ph.split.us.preheader, label %._crit_edge

.lr.ph.split.us.preheader:                        ; preds = %.lr.ph
  %15 = zext nneg i32 %10 to i64
  %16 = sext i32 %3 to i64
  %wide.trip.count = zext nneg i32 %5 to i64
  br label %.lr.ph.split.us

.lr.ph.split.us:                                  ; preds = %.lr.ph.split.us.preheader, %.loopexit.us
  %indvars.iv29 = phi i64 [ 0, %.lr.ph.split.us.preheader ], [ %indvars.iv.next30, %.loopexit.us ]
  %17 = getelementptr inbounds nuw [10 x float], ptr %12, i64 0, i64 %indvars.iv29
  %18 = load float, ptr %17, align 4, !tbaa !17
  %19 = fmul nsz float %2, %18
  %20 = getelementptr inbounds nuw [10 x i32], ptr %13, i64 0, i64 %indvars.iv29
  %21 = load i32, ptr %20, align 4, !tbaa !16
  %22 = icmp slt i32 %21, %3
  br i1 %22, label %.preheader.us, label %.split.us

.preheader.split.us26:                            ; preds = %.preheader.us, %.preheader.split.us26
  %indvars.iv = phi i64 [ %indvars.iv.next, %.preheader.split.us26 ], [ %32, %.preheader.us ]
  %.0.us = phi nsz float [ %27, %.preheader.split.us26 ], [ %19, %.preheader.us ]
  %23 = getelementptr inbounds float, ptr %0, i64 %indvars.iv
  %24 = load float, ptr %23, align 4, !tbaa !17
  %25 = fadd nsz float %.0.us, %24
  store float %25, ptr %23, align 4, !tbaa !17
  %26 = load float, ptr %14, align 4, !tbaa !24
  %27 = fmul nsz float %.0.us, %26
  %indvars.iv.next = add nsw i64 %indvars.iv, %15
  %28 = icmp slt i64 %indvars.iv.next, %16
  br i1 %28, label %.preheader.split.us26, label %.loopexit.us, !llvm.loop !25

.preheader.us:                                    ; preds = %.lr.ph.split.us
  %29 = trunc nuw nsw i64 %indvars.iv29 to i32
  %30 = shl nuw i32 1, %29
  %31 = and i32 %8, %30
  %.fr = freeze i32 %31
  %.not.us = icmp eq i32 %.fr, 0
  %32 = sext i32 %21 to i64
  br i1 %.not.us, label %.preheader.split.us26, label %.preheader.split.us.us

.loopexit.us:                                     ; preds = %.preheader.split.us26, %.preheader.split.us.us
  %indvars.iv.next30 = add nuw nsw i64 %indvars.iv29, 1
  %exitcond.not = icmp eq i64 %indvars.iv.next30, %wide.trip.count
  br i1 %exitcond.not, label %._crit_edge, label %.lr.ph.split.us, !llvm.loop !26

.preheader.split.us.us:                           ; preds = %.preheader.us
  %33 = getelementptr inbounds float, ptr %0, i64 %32
  %34 = load float, ptr %33, align 4, !tbaa !17
  %35 = fadd nsz float %19, %34
  store float %35, ptr %33, align 4, !tbaa !17
  br label %.loopexit.us

.split.us:                                        ; preds = %.lr.ph.split.us
  tail call void (ptr, i32, ptr, ...) @av_log(ptr noundef null, i32 noundef 0, ptr noundef nonnull @.str, ptr noundef nonnull @.str.1, ptr noundef nonnull @.str.2, i32 noundef 233) #7
  tail call void @abort() #8
  unreachable

._crit_edge:                                      ; preds = %.loopexit.us, %.lr.ph, %4
  ret void
}